; Function Attrs: mustprogress uwtable
define void @_ZNK8QuantLib20OvernightIndexFuture19performCalculationsEv(ptr noundef nonnull align 8 dereferenceable(156) %this) unnamed_addr #6 align 2 {
entry:
  %convexityAdjustment_.i = getelementptr inbounds nuw i8, ptr %this, i64 136
  %0 = load ptr, ptr %convexityAdjustment_.i, align 8, !tbaa !46
  %cmp.not.i.i.i = icmp eq ptr %0, null
  br i1 %cmp.not.i.i.i, label %cond.false.i.i.i, label %_ZNK8QuantLib6HandleINS_5QuoteEE5emptyEv.exit.i, !prof !67

cond.false.i.i.i:                                 ; preds = %entry
  tail call void @_ZN5boost16assertion_failedEPKcS1_S1_l(ptr noundef nonnull @.str.15, ptr noundef nonnull @__PRETTY_FUNCTION__._ZNK5boost10shared_ptrIN8QuantLib6HandleINS1_5QuoteEE4LinkEEptEv, ptr noundef nonnull @.str.16, i64 noundef 784)
  %.pre.i.i.i = load ptr, ptr %convexityAdjustment_.i, align 8, !tbaa !46
  br label %_ZNK8QuantLib6HandleINS_5QuoteEE5emptyEv.exit.i

_ZNK8QuantLib6HandleINS_5QuoteEE5emptyEv.exit.i:  ; preds = %cond.false.i.i.i, %entry
  %1 = phi ptr [ %0, %entry ], [ %.pre.i.i.i, %cond.false.i.i.i ]
  %h_.i.i.i = getelementptr inbounds nuw i8, ptr %1, i64 112
  %2 = load ptr, ptr %h_.i.i.i, align 8, !tbaa !91
  %cmp.i.i.i.i = icmp eq ptr %2, null
  br i1 %cmp.i.i.i.i, label %_ZNK8QuantLib20OvernightIndexFuture19convexityAdjustmentEv.exit, label %cond.false.i

cond.false.i:                                     ; preds = %_ZNK8QuantLib6HandleINS_5QuoteEE5emptyEv.exit.i
  %call3.i = tail call noundef nonnull align 8 dereferenceable(16) ptr @_ZNK8QuantLib6HandleINS_5QuoteEEptEv(ptr noundef nonnull align 8 dereferenceable(16) %convexityAdjustment_.i)
  %3 = load ptr, ptr %call3.i, align 8, !tbaa !91
  %cmp.not.i.i = icmp eq ptr %3, null
  br i1 %cmp.not.i.i, label %cond.false.i.i, label %_ZNK5boost10shared_ptrIN8QuantLib5QuoteEEptEv.exit.i, !prof !67

cond.false.i.i:                                   ; preds = %cond.false.i
  tail call void @_ZN5boost16assertion_failedEPKcS1_S1_l(ptr noundef nonnull @.str.15, ptr noundef nonnull @__PRETTY_FUNCTION__._ZNK5boost10shared_ptrIN8QuantLib5QuoteEEptEv, ptr noundef nonnull @.str.16, i64 noundef 784)
  %.pre.i.i = load ptr, ptr %call3.i, align 8, !tbaa !91
  br label %_ZNK5boost10shared_ptrIN8QuantLib5QuoteEEptEv.exit.i

_ZNK5boost10shared_ptrIN8QuantLib5QuoteEEptEv.exit.i: ; preds = %cond.false.i.i, %cond.false.i
  %4 = phi ptr [ %3, %cond.false.i ], [ %.pre.i.i, %cond.false.i.i ]
  %vtable.i = load ptr, ptr %4, align 8, !tbaa !35
  %vfn.i = getelementptr inbounds i8, ptr %vtable.i, i64 16
  %5 = load ptr, ptr %vfn.i, align 8
  %call5.i = tail call noundef double %5(ptr noundef nonnull align 8 dereferenceable(8) %4)
  br label %_ZNK8QuantLib20OvernightIndexFuture19convexityAdjustmentEv.exit

_ZNK8QuantLib20OvernightIndexFuture19convexityAdjustmentEv.exit: ; preds = %_ZNK8QuantLib6HandleINS_5QuoteEE5emptyEv.exit.i, %_ZNK5boost10shared_ptrIN8QuantLib5QuoteEEptEv.exit.i
  %cond.i = phi double [ %call5.i, %_ZNK5boost10shared_ptrIN8QuantLib5QuoteEEptEv.exit.i ], [ 0.000000e+00, %_ZNK8QuantLib6HandleINS_5QuoteEE5emptyEv.exit.i ]
  %call2 = tail call noundef double @_ZNK8QuantLib20OvernightIndexFuture4rateEv(ptr noundef nonnull align 8 dereferenceable(156) %this)
  %add = fadd double %cond.i, %call2
  %sub = fsub double 1.000000e+00, %add
  %mul = fmul double %sub, 1.000000e+02
  %NPV_ = getelementptr inbounds nuw i8, ptr %this, i64 16
  store double %mul, ptr %NPV_, align 8, !tbaa !93
  ret void
}